(lp1
(lp2
S'Milk'
p3
aS'1L'
p4
aS'Lidl'
p5
aa(lp6
S'Bread'
p7
aS'2'
aS'Bakery'
p8
aa(lp9
S'Fuel'
p10
aS''
aS''
aa(lp11
S'liquid'
p12
aS''
aS'eSmoking'
p13
aa(lp14
S'Potatos'
p15
aS'2kg'
p16
aS'Lidl'
p17
aa.