(lp1
(lp2
S'mleko ryzowwe'
p3
aS'2'
aS''
aa(lp4
S'owsianka'
p5
aS'2 paczki'
p6
aS'PiP'
p7
aa(lp8
S'suszona zurawina'
p9
aS'1'
aS''
aa(lp10
S'mleko ryzowe'
p11
aS''
aS''
aa(lp12
S'suszona zurawina'
p13
aS'1 paczka'
p14
aS'PiP'
p15
aa(lp16
S'test2'
p17
aS'1'
aS'Lidl'
p18
aa.