(lp1
(lp2
S'mieszanka studencja'
p3
aS'2'
aS'Lidl'
p4
aa(lp5
S'grzyby'
p6
aS''
aS'Lidl'
p7
aa(lp8
S'sok jablkowy'
p9
aS'1l'
p10
aS'Lidl'
p11
aa(lp12
S'polerka do paznokci'
p13
aS''
aS'Lidl'
p14
aa(lp15
VSa\u0142ata dla zwierzy
p16
aS'1 paczka'
p17
aS'Lidl'
p18
aa(lp19
S'cos do chleba'
p20
aS''
aS'Lidl'
p21
aa(lp22
S'ubierz sie'
p23
aS''
aS''
aa(lp24
S'powiesic kwiatka'
p25
aS''
aS''
aa(lp26
S'znalezc kabelek x100'
p27
aS''
aS''
aa(lp28
S'spytac arasa o swiatlomierz'
p29
aS''
aS''
aa.